target datalayout = "e-m:e-p270:32:32-p271:32:32-p272:64:64-i64:64-i128:128-f80:128-n8:16:32:64-S128"
target triple = "x86_64-unknown-linux-gnu"

%struct.redisServer = type { i32, i64, ptr, ptr, ptr, i32, i32, i32, i32, i32, ptr, ptr, ptr, ptr, ptr, ptr, i32, i32, i64, i32, i32, i32, i32, ptr, i32, i32, [41 x i8], i32, i64, i32, i32, i32, ptr, ptr, i32, i32, i64, ptr, ptr, ptr, ptr, [2 x i32], i32, i32, i32, i32, i32, [16 x ptr], i32, ptr, ptr, i32, [8 x %struct.connListener], i32, %struct.connListener, ptr, ptr, ptr, ptr, ptr, ptr, ptr, ptr, ptr, ptr, i32, ptr, i32, ptr, [3 x %struct.pause_event], [256 x i8], ptr, i64, i32, i32, i32, i32, i64, i32, i32, i32, i32, i32, i64, i64, i64, i64, i64, i64, i64, i64, i64, double, i64, i64, i64, i64, i64, i64, i64, i64, i64, i64, i64, i64, i64, i64, i64, i64, i64, i64, i64, i64, double, i64, i64, i64, i64, i64, ptr, i64, i64, i64, %struct.malloc_stats, i64, i64, i64, i64, i64, i64, i64, i64, i64, i64, i64, i64, double, [4 x i64], i64, i64, i64, i64, i64, i64, i64, i64, i64, i64, [7 x %struct.anon], i64, i64, i64, i64, i64, i64, [4 x %struct.durationStats], i32, i32, i32, i32, i32, i32, i32, i32, i32, i32, i64, i32, i32, i32, i32, i64, i64, i32, i32, i32, i32, i32, ptr, [3 x %struct.clientBufferLimitsConfig], i32, i32, ptr, i32, i32, i32, i32, ptr, ptr, i32, i32, i64, i64, i64, i64, i64, i32, i32, ptr, i32, i32, i64, i64, i64, i64, i64, i32, i32, i64, i32, i32, i32, i32, i32, i32, i32, i32, ptr, i32, i64, i64, i64, i64, ptr, i32, ptr, i32, i32, i32, i64, i64, i64, i64, i32, i32, i32, i32, i32, i32, ptr, i32, i32, ptr, i32, i32, i32, [2 x i32], i32, %struct.redisOpArray, i32, ptr, i32, ptr, i32, i32, i32, i32, i32, i32, i32, [41 x i8], [41 x i8], i64, i64, i64, i64, i32, i32, ptr, i64, i64, i64, i32, i32, i32, i32, i32, i32, i32, i64, ptr, ptr, ptr, ptr, i32, i32, ptr, ptr, i32, i32, i64, i64, i64, ptr, i32, ptr, i64, i32, i32, i32, i64, i32, i32, i32, i32, ptr, i32, i32, [41 x i8], i64, i32, ptr, i32, i32, i64, i64, i32, i32, i32, i32, i32, i64, [3 x i32], i32, i32, i32, [9 x i32], ptr, ptr, i32, i64, ptr, ptr, i32, i32, i32, i32, i64, i64, i64, i64, i64, i64, i64, i64, i64, i64, i32, i32, i64, i64, i32, i64, i64, i64, i64, i64, ptr, ptr, i32, ptr, i32, i32, i32, i64, i64, ptr, ptr, i32, i32, i32, i32, i32, ptr, ptr, ptr, i32, i32, i32, i32, i32, i32, i32, i64, i32, i64, i32, i32, i32, i32, i32, i32, i32, i64, ptr, ptr, i64, ptr, i32, %struct.aclInfo, i32, i64, i32, i32, i32, %struct.redisTLSContextConfig, ptr, ptr, ptr, ptr, ptr, i64, i32, ptr, i32, i32, i32, i64, i32, ptr }
%struct.connListener = type { [16 x i32], i32, ptr, i32, i32, ptr, ptr }
%struct.pause_event = type { i32, i64 }
%struct.malloc_stats = type { i64, i64, i64, i64, i64 }
%struct.anon = type { i64, i64, [16 x i64], i32 }
%struct.durationStats = type { i64, i64, i64 }
%struct.clientBufferLimitsConfig = type { i64, i64, i64 }
%struct.redisOpArray = type { ptr, i32, i32 }
%struct.aclInfo = type { i64, i64, i64, i64 }
%struct.redisTLSContextConfig = type { ptr, ptr, ptr, ptr, ptr, ptr, ptr, ptr, ptr, ptr, ptr, ptr, i32, i32, i32, i32 }
%struct.client = type { i64, i64, ptr, i32, ptr, ptr, ptr, ptr, ptr, i64, i64, i32, ptr, i32, i32, ptr, i64, ptr, ptr, ptr, ptr, i32, i32, i64, ptr, i64, ptr, i64, i64, i64, i32, ptr, i64, i64, i32, i32, i32, i32, i64, i64, ptr, i64, i64, i64, i64, i64, i64, i64, i64, [41 x i8], i32, ptr, i32, i32, %struct.multiState, %struct.blockingState, i64, ptr, ptr, ptr, ptr, ptr, ptr, ptr, ptr, ptr, ptr, ptr, ptr, ptr, ptr, i64, ptr, i64, i32, ptr, ptr, ptr, i64, %struct.listNode, i64, i64, i32, i64, ptr }
%struct.multiState = type { ptr, i32, i32, i32, i64, i32 }
%struct.blockingState = type { i32, i64, i32, ptr, i32, i32, i64, ptr, ptr }
%struct.listNode = type { ptr, ptr, ptr }
%struct.listIter = type { ptr, i32 }
%struct.connection = type { ptr, i32, i32, i32, i16, i16, i16, ptr, ptr, ptr, ptr }
%struct.ConnectionType = type { ptr, ptr, ptr, ptr, ptr, ptr, ptr, ptr, ptr, ptr, ptr, ptr, ptr, ptr, ptr, ptr, ptr, ptr, ptr, ptr, ptr, ptr, ptr, ptr, ptr, ptr, ptr, ptr }

@server = external global %struct.redisServer, align 8

; Function Attrs: nounwind uwtable
define internal i32 @connAddr(ptr noundef %conn, ptr noundef %ip, i64 noundef %ip_len, ptr noundef %port, i32 noundef %remote) #0 {
entry:
  %retval = alloca i32, align 4
  %conn.addr = alloca ptr, align 8
  %ip.addr = alloca ptr, align 8
  %ip_len.addr = alloca i64, align 8
  %port.addr = alloca ptr, align 8
  %remote.addr = alloca i32, align 4
  store ptr %conn, ptr %conn.addr, align 8
  store ptr %ip, ptr %ip.addr, align 8
  store i64 %ip_len, ptr %ip_len.addr, align 8
  store ptr %port, ptr %port.addr, align 8
  store i32 %remote, ptr %remote.addr, align 4
  %0 = load ptr, ptr %conn.addr, align 8
  %tobool = icmp ne ptr %0, null
  br i1 %tobool, label %land.lhs.true, label %if.end

land.lhs.true:                                    ; preds = %entry
  %1 = load ptr, ptr %conn.addr, align 8
  %type = getelementptr inbounds %struct.connection, ptr %1, i32 0, i32 0
  %2 = load ptr, ptr %type, align 8
  %addr = getelementptr inbounds %struct.ConnectionType, ptr %2, i32 0, i32 6
  %3 = load ptr, ptr %addr, align 8
  %tobool1 = icmp ne ptr %3, null
  br i1 %tobool1, label %if.then, label %if.end

if.then:                                          ; preds = %land.lhs.true
  %4 = load ptr, ptr %conn.addr, align 8
  %type2 = getelementptr inbounds %struct.connection, ptr %4, i32 0, i32 0
  %5 = load ptr, ptr %type2, align 8
  %addr3 = getelementptr inbounds %struct.ConnectionType, ptr %5, i32 0, i32 6
  %6 = load ptr, ptr %addr3, align 8
  %7 = load ptr, ptr %conn.addr, align 8
  %8 = load ptr, ptr %ip.addr, align 8
  %9 = load i64, ptr %ip_len.addr, align 8
  %10 = load ptr, ptr %port.addr, align 8
  %11 = load i32, ptr %remote.addr, align 4
  %call = call i32 %6(ptr noundef %7, ptr noundef %8, i64 noundef %9, ptr noundef %10, i32 noundef %11)
  store i32 %call, ptr %retval, align 4
  br label %return

if.end:                                           ; preds = %land.lhs.true, %entry
  store i32 -1, ptr %retval, align 4
  br label %return

return:                                           ; preds = %if.end, %if.then
  %12 = load i32, ptr %retval, align 4
  ret i32 %12
}

; Function Attrs: nounwind uwtable
define internal i32 @connAddrPeerName(ptr noundef %conn, ptr noundef %ip, i64 noundef %ip_len, ptr noundef %port) #0 {
entry:
  %conn.addr = alloca ptr, align 8
  %ip.addr = alloca ptr, align 8
  %ip_len.addr = alloca i64, align 8
  %port.addr = alloca ptr, align 8
  store ptr %conn, ptr %conn.addr, align 8
  store ptr %ip, ptr %ip.addr, align 8
  store i64 %ip_len, ptr %ip_len.addr, align 8
  store ptr %port, ptr %port.addr, align 8
  %0 = load ptr, ptr %conn.addr, align 8
  %1 = load ptr, ptr %ip.addr, align 8
  %2 = load i64, ptr %ip_len.addr, align 8
  %3 = load ptr, ptr %port.addr, align 8
  %call = call i32 @connAddr(ptr noundef %0, ptr noundef %1, i64 noundef %2, ptr noundef %3, i32 noundef 1)
  ret i32 %call
}

; Function Attrs: nounwind uwtable
define internal ptr @findReplica(ptr noundef %host, i32 noundef %port) #0 {
entry:
  %retval = alloca ptr, align 8
  %host.addr = alloca ptr, align 8
  %port.addr = alloca i32, align 4
  %li = alloca %struct.listIter, align 8
  %ln = alloca ptr, align 8
  %replica = alloca ptr, align 8
  %ip = alloca [46 x i8], align 16
  %replicaip = alloca ptr, align 8
  store ptr %host, ptr %host.addr, align 8
  store i32 %port, ptr %port.addr, align 4
  %0 = load ptr, ptr getelementptr inbounds (%struct.redisServer, ptr @server, i32 0, i32 59), align 8
  call void @listRewind(ptr noundef %0, ptr noundef %li)
  br label %while.cond

while.cond:                                       ; preds = %if.end10, %if.then3, %entry
  %call = call ptr @listNext(ptr noundef %li)
  store ptr %call, ptr %ln, align 8
  %tobool = icmp ne ptr %call, null
  br i1 %tobool, label %while.body, label %while.end

while.body:                                       ; preds = %while.cond
  %1 = load ptr, ptr %ln, align 8
  %value = getelementptr inbounds %struct.listNode, ptr %1, i32 0, i32 2
  %2 = load ptr, ptr %value, align 8
  store ptr %2, ptr %replica, align 8
  %3 = load ptr, ptr %replica, align 8
  %slave_addr = getelementptr inbounds %struct.client, ptr %3, i32 0, i32 51
  %4 = load ptr, ptr %slave_addr, align 8
  store ptr %4, ptr %replicaip, align 8
  %5 = load ptr, ptr %replicaip, align 8
  %tobool1 = icmp ne ptr %5, null
  br i1 %tobool1, label %if.end5, label %if.then

if.then:                                          ; preds = %while.body
  %6 = load ptr, ptr %replica, align 8
  %conn = getelementptr inbounds %struct.client, ptr %6, i32 0, i32 2
  %7 = load ptr, ptr %conn, align 8
  %arraydecay = getelementptr inbounds [46 x i8], ptr %ip, i64 0, i64 0
  %call2 = call i32 @connAddrPeerName(ptr noundef %7, ptr noundef %arraydecay, i64 noundef 46, ptr noundef null)
  %cmp = icmp eq i32 %call2, -1
  br i1 %cmp, label %if.then3, label %if.end

if.then3:                                         ; preds = %if.then
  br label %while.cond, !llvm.loop !42

if.end:                                           ; preds = %if.then
  %arraydecay4 = getelementptr inbounds [46 x i8], ptr %ip, i64 0, i64 0
  store ptr %arraydecay4, ptr %replicaip, align 8
  br label %if.end5

if.end5:                                          ; preds = %if.end, %while.body
  %8 = load ptr, ptr %host.addr, align 8
  %9 = load ptr, ptr %replicaip, align 8
  %call6 = call i32 @strcasecmp(ptr noundef %8, ptr noundef %9) #11
  %tobool7 = icmp ne i32 %call6, 0
  br i1 %tobool7, label %if.end10, label %land.lhs.true

land.lhs.true:                                    ; preds = %if.end5
  %10 = load i32, ptr %port.addr, align 4
  %11 = load ptr, ptr %replica, align 8
  %slave_listening_port = getelementptr inbounds %struct.client, ptr %11, i32 0, i32 50
  %12 = load i32, ptr %slave_listening_port, align 4
  %cmp8 = icmp eq i32 %10, %12
  br i1 %cmp8, label %if.then9, label %if.end10

if.then9:                                         ; preds = %land.lhs.true
  %13 = load ptr, ptr %replica, align 8
  store ptr %13, ptr %retval, align 8
  br label %return

if.end10:                                         ; preds = %land.lhs.true, %if.end5
  br label %while.cond, !llvm.loop !42

while.end:                                        ; preds = %while.cond
  store ptr null, ptr %retval, align 8
  br label %return

return:                                           ; preds = %while.end, %if.then9
  %14 = load ptr, ptr %retval, align 8
  ret ptr %14
}