; Function Attrs: nounwind uwtable
define internal fastcc ptr @findReplica(ptr nocapture noundef readonly %host, i32 noundef %port) unnamed_addr #0 {
entry:
  %li = alloca %struct.listIter, align 8
  %ip = alloca [46 x i8], align 16
  %0 = load ptr, ptr getelementptr inbounds (%struct.redisServer, ptr @server, i64 0, i32 59), align 8
  call void @listRewind(ptr noundef %0, ptr noundef nonnull %li) #21
  %call5 = call ptr @listNext(ptr noundef nonnull %li) #21
  %tobool.not6 = icmp eq ptr %call5, null
  br i1 %tobool.not6, label %return, label %while.body

while.body:                                       ; preds = %entry, %while.cond.backedge
  %call7 = phi ptr [ %call, %while.cond.backedge ], [ %call5, %entry ]
  %value = getelementptr inbounds i8, ptr %call7, i64 16
  %1 = load ptr, ptr %value, align 8
  %slave_addr = getelementptr inbounds i8, ptr %1, i64 408
  %2 = load ptr, ptr %slave_addr, align 8
  %tobool1.not = icmp eq ptr %2, null
  br i1 %tobool1.not, label %if.then, label %if.end5

if.then:                                          ; preds = %while.body
  %conn = getelementptr inbounds i8, ptr %1, i64 16
  %3 = load ptr, ptr %conn, align 8
  %tobool.not.i.i = icmp eq ptr %3, null
  br i1 %tobool.not.i.i, label %while.cond.backedge, label %land.lhs.true.i.i

land.lhs.true.i.i:                                ; preds = %if.then
  %4 = load ptr, ptr %3, align 8
  %addr.i.i = getelementptr inbounds i8, ptr %4, i64 48
  %5 = load ptr, ptr %addr.i.i, align 8
  %tobool1.not.i.i = icmp eq ptr %5, null
  br i1 %tobool1.not.i.i, label %while.cond.backedge, label %connAddrPeerName.exit

connAddrPeerName.exit:                            ; preds = %land.lhs.true.i.i
  %call.i.i = call i32 %5(ptr noundef nonnull %3, ptr noundef nonnull %ip, i64 noundef 46, ptr noundef null, i32 noundef 1) #21
  %cmp = icmp eq i32 %call.i.i, -1
  br i1 %cmp, label %while.cond.backedge, label %if.end5

if.end5:                                          ; preds = %connAddrPeerName.exit, %while.body
  %replicaip.0 = phi ptr [ %2, %while.body ], [ %ip, %connAddrPeerName.exit ]
  %call6 = call i32 @strcasecmp(ptr noundef %host, ptr noundef nonnull %replicaip.0) #22
  %tobool7.not = icmp eq i32 %call6, 0
  br i1 %tobool7.not, label %land.lhs.true, label %while.cond.backedge

land.lhs.true:                                    ; preds = %if.end5
  %slave_listening_port = getelementptr inbounds i8, ptr %1, i64 404
  %6 = load i32, ptr %slave_listening_port, align 4
  %cmp8 = icmp eq i32 %6, %port
  br i1 %cmp8, label %return, label %while.cond.backedge

while.cond.backedge:                              ; preds = %if.then, %land.lhs.true.i.i, %if.end5, %land.lhs.true, %connAddrPeerName.exit
  %call = call ptr @listNext(ptr noundef nonnull %li) #21
  %tobool.not = icmp eq ptr %call, null
  br i1 %tobool.not, label %return, label %while.body, !llvm.loop !43

return:                                           ; preds = %land.lhs.true, %while.cond.backedge, %entry
  %retval.0 = phi ptr [ null, %entry ], [ null, %while.cond.backedge ], [ %1, %land.lhs.true ]
  ret ptr %retval.0
}